target datalayout = "e-m:e-p270:32:32-p271:32:32-p272:64:64-i64:64-i128:128-f80:128-n8:16:32:64-S128"
target triple = "x86_64-pc-linux-gnu"

%struct.block_q4_1 = type { %union.anon, [16 x i8] }
%union.anon = type { i32 }
%struct.anon = type { i16, i16 }

@ggml_table_f32_f16 = external global [65536 x float], align 16

; Function Attrs: inlinehint nounwind uwtable
define internal float @ggml_lookup_fp16_to_fp32(i16 noundef zeroext %0) #3 {
  %2 = alloca i16, align 2
  %3 = alloca i16, align 2
  store i16 %0, ptr %2, align 2, !tbaa !42
  call void @llvm.lifetime.start.p0(i64 2, ptr %3) #10
  call void @llvm.memcpy.p0.p0.i64(ptr align 2 %3, ptr align 2 %2, i64 2, i1 false)
  %4 = load i16, ptr %3, align 2, !tbaa !42
  %5 = zext i16 %4 to i64
  %6 = getelementptr inbounds nuw [65536 x float], ptr @ggml_table_f32_f16, i64 0, i64 %5
  %7 = load float, ptr %6, align 4, !tbaa !13
  call void @llvm.lifetime.end.p0(i64 2, ptr %3) #10
  ret float %7
}

; Function Attrs: nounwind uwtable
define void @dequantize_row_q4_1(ptr noalias noundef %0, ptr noalias noundef %1, i64 noundef %2) #0 {
  %4 = alloca ptr, align 8
  %5 = alloca ptr, align 8
  %6 = alloca i64, align 8
  %7 = alloca i32, align 4
  %8 = alloca i32, align 4
  %9 = alloca i32, align 4
  %10 = alloca float, align 4
  %11 = alloca float, align 4
  %12 = alloca i32, align 4
  %13 = alloca i32, align 4
  %14 = alloca i32, align 4
  store ptr %0, ptr %4, align 8, !tbaa !8
  store ptr %1, ptr %5, align 8, !tbaa !3
  store i64 %2, ptr %6, align 8, !tbaa !9
  call void @llvm.lifetime.start.p0(i64 4, ptr %7) #10
  %15 = load i64, ptr %6, align 8, !tbaa !9
  %16 = sdiv i64 %15, 32
  %17 = trunc i64 %16 to i32
  store i32 %17, ptr %7, align 4, !tbaa !11
  call void @llvm.lifetime.start.p0(i64 4, ptr %8) #10
  store i32 0, ptr %8, align 4, !tbaa !11
  br label %18

18:                                               ; preds = %97, %3
  %19 = load i32, ptr %8, align 4, !tbaa !11
  %20 = load i32, ptr %7, align 4, !tbaa !11
  %21 = icmp slt i32 %19, %20
  br i1 %21, label %23, label %22

22:                                               ; preds = %18
  store i32 2, ptr %9, align 4
  call void @llvm.lifetime.end.p0(i64 4, ptr %8) #10
  br label %100

23:                                               ; preds = %18
  call void @llvm.lifetime.start.p0(i64 4, ptr %10) #10
  %24 = load ptr, ptr %4, align 8, !tbaa !8
  %25 = load i32, ptr %8, align 4, !tbaa !11
  %26 = sext i32 %25 to i64
  %27 = getelementptr inbounds %struct.block_q4_1, ptr %24, i64 %26
  %28 = getelementptr inbounds nuw %struct.block_q4_1, ptr %27, i32 0, i32 0
  %29 = getelementptr inbounds nuw %struct.anon, ptr %28, i32 0, i32 0
  %30 = load i16, ptr %29, align 4, !tbaa !20
  %31 = call float @ggml_lookup_fp16_to_fp32(i16 noundef zeroext %30)
  store float %31, ptr %10, align 4, !tbaa !13
  call void @llvm.lifetime.start.p0(i64 4, ptr %11) #10
  %32 = load ptr, ptr %4, align 8, !tbaa !8
  %33 = load i32, ptr %8, align 4, !tbaa !11
  %34 = sext i32 %33 to i64
  %35 = getelementptr inbounds %struct.block_q4_1, ptr %32, i64 %34
  %36 = getelementptr inbounds nuw %struct.block_q4_1, ptr %35, i32 0, i32 0
  %37 = getelementptr inbounds nuw %struct.anon, ptr %36, i32 0, i32 1
  %38 = load i16, ptr %37, align 2, !tbaa !20
  %39 = call float @ggml_lookup_fp16_to_fp32(i16 noundef zeroext %38)
  store float %39, ptr %11, align 4, !tbaa !13
  call void @llvm.lifetime.start.p0(i64 4, ptr %12) #10
  store i32 0, ptr %12, align 4, !tbaa !11
  br label %40

40:                                               ; preds = %93, %23
  %41 = load i32, ptr %12, align 4, !tbaa !11
  %42 = icmp slt i32 %41, 16
  br i1 %42, label %44, label %43

43:                                               ; preds = %40
  store i32 5, ptr %9, align 4
  call void @llvm.lifetime.end.p0(i64 4, ptr %12) #10
  br label %96

44:                                               ; preds = %40
  call void @llvm.lifetime.start.p0(i64 4, ptr %13) #10
  %45 = load ptr, ptr %4, align 8, !tbaa !8
  %46 = load i32, ptr %8, align 4, !tbaa !11
  %47 = sext i32 %46 to i64
  %48 = getelementptr inbounds %struct.block_q4_1, ptr %45, i64 %47
  %49 = getelementptr inbounds nuw %struct.block_q4_1, ptr %48, i32 0, i32 1
  %50 = load i32, ptr %12, align 4, !tbaa !11
  %51 = sext i32 %50 to i64
  %52 = getelementptr inbounds [16 x i8], ptr %49, i64 0, i64 %51
  %53 = load i8, ptr %52, align 1, !tbaa !20
  %54 = zext i8 %53 to i32
  %55 = and i32 %54, 15
  store i32 %55, ptr %13, align 4, !tbaa !11
  call void @llvm.lifetime.start.p0(i64 4, ptr %14) #10
  %56 = load ptr, ptr %4, align 8, !tbaa !8
  %57 = load i32, ptr %8, align 4, !tbaa !11
  %58 = sext i32 %57 to i64
  %59 = getelementptr inbounds %struct.block_q4_1, ptr %56, i64 %58
  %60 = getelementptr inbounds nuw %struct.block_q4_1, ptr %59, i32 0, i32 1
  %61 = load i32, ptr %12, align 4, !tbaa !11
  %62 = sext i32 %61 to i64
  %63 = getelementptr inbounds [16 x i8], ptr %60, i64 0, i64 %62
  %64 = load i8, ptr %63, align 1, !tbaa !20
  %65 = zext i8 %64 to i32
  %66 = ashr i32 %65, 4
  store i32 %66, ptr %14, align 4, !tbaa !11
  %67 = load i32, ptr %13, align 4, !tbaa !11
  %68 = sitofp i32 %67 to float
  %69 = load float, ptr %10, align 4, !tbaa !13
  %70 = load float, ptr %11, align 4, !tbaa !13
  %71 = call float @llvm.fmuladd.f32(float %68, float %69, float %70)
  %72 = load ptr, ptr %5, align 8, !tbaa !3
  %73 = load i32, ptr %8, align 4, !tbaa !11
  %74 = mul nsw i32 %73, 32
  %75 = load i32, ptr %12, align 4, !tbaa !11
  %76 = add nsw i32 %74, %75
  %77 = add nsw i32 %76, 0
  %78 = sext i32 %77 to i64
  %79 = getelementptr inbounds float, ptr %72, i64 %78
  store float %71, ptr %79, align 4, !tbaa !13
  %80 = load i32, ptr %14, align 4, !tbaa !11
  %81 = sitofp i32 %80 to float
  %82 = load float, ptr %10, align 4, !tbaa !13
  %83 = load float, ptr %11, align 4, !tbaa !13
  %84 = call float @llvm.fmuladd.f32(float %81, float %82, float %83)
  %85 = load ptr, ptr %5, align 8, !tbaa !3
  %86 = load i32, ptr %8, align 4, !tbaa !11
  %87 = mul nsw i32 %86, 32
  %88 = load i32, ptr %12, align 4, !tbaa !11
  %89 = add nsw i32 %87, %88
  %90 = add nsw i32 %89, 16
  %91 = sext i32 %90 to i64
  %92 = getelementptr inbounds float, ptr %85, i64 %91
  store float %84, ptr %92, align 4, !tbaa !13
  call void @llvm.lifetime.end.p0(i64 4, ptr %14) #10
  call void @llvm.lifetime.end.p0(i64 4, ptr %13) #10
  br label %93

93:                                               ; preds = %44
  %94 = load i32, ptr %12, align 4, !tbaa !11
  %95 = add nsw i32 %94, 1
  store i32 %95, ptr %12, align 4, !tbaa !11
  br label %40, !llvm.loop !43

96:                                               ; preds = %43
  call void @llvm.lifetime.end.p0(i64 4, ptr %11) #10
  call void @llvm.lifetime.end.p0(i64 4, ptr %10) #10
  br label %97

97:                                               ; preds = %96
  %98 = load i32, ptr %8, align 4, !tbaa !11
  %99 = add nsw i32 %98, 1
  store i32 %99, ptr %8, align 4, !tbaa !11
  br label %18, !llvm.loop !44

100:                                              ; preds = %22
  call void @llvm.lifetime.end.p0(i64 4, ptr %7) #10
  ret void
}