; Function Attrs: nofree norecurse nosync nounwind memory(read, argmem: readwrite, inaccessiblemem: none) uwtable
define void @dequantize_row_q4_1(ptr noalias noundef readonly captures(none) %0, ptr noalias noundef writeonly captures(none) %1, i64 noundef %2) local_unnamed_addr #4 {
  %4 = sdiv i64 %2, 32
  %5 = trunc i64 %4 to i32
  %6 = icmp sgt i32 %5, 0
  br i1 %6, label %.lr.ph.preheader, label %._crit_edge

.lr.ph.preheader:                                 ; preds = %3
  %wide.trip.count = and i64 %4, 2147483647
  br label %.lr.ph

._crit_edge:                                      ; preds = %19, %3
  ret void

.lr.ph:                                           ; preds = %.lr.ph.preheader, %19
  %indvars.iv31 = phi i64 [ 0, %.lr.ph.preheader ], [ %indvars.iv.next32, %19 ]
  %7 = getelementptr inbounds nuw %struct.block_q4_1, ptr %0, i64 %indvars.iv31
  %8 = load i16, ptr %7, align 4, !tbaa !13
  %9 = zext i16 %8 to i64
  %10 = getelementptr inbounds nuw [65536 x float], ptr @ggml_table_f32_f16, i64 0, i64 %9
  %11 = load float, ptr %10, align 4, !tbaa !8
  %12 = getelementptr inbounds nuw i8, ptr %7, i64 2
  %13 = load i16, ptr %12, align 2, !tbaa !13
  %14 = zext i16 %13 to i64
  %15 = getelementptr inbounds nuw [65536 x float], ptr @ggml_table_f32_f16, i64 0, i64 %14
  %16 = load float, ptr %15, align 4, !tbaa !8
  %17 = getelementptr inbounds nuw i8, ptr %7, i64 4
  %18 = shl nsw i64 %indvars.iv31, 5
  br label %20

19:                                               ; preds = %20
  %indvars.iv.next32 = add nuw nsw i64 %indvars.iv31, 1
  %exitcond34.not = icmp eq i64 %indvars.iv.next32, %wide.trip.count
  br i1 %exitcond34.not, label %._crit_edge, label %.lr.ph, !llvm.loop !34

20:                                               ; preds = %.lr.ph, %20
  %indvars.iv = phi i64 [ 0, %.lr.ph ], [ %indvars.iv.next, %20 ]
  %21 = getelementptr inbounds nuw [16 x i8], ptr %17, i64 0, i64 %indvars.iv
  %22 = load i8, ptr %21, align 1, !tbaa !13
  %23 = zext i8 %22 to i32
  %24 = and i32 %23, 15
  %25 = lshr i32 %23, 4
  %26 = uitofp nneg i32 %24 to float
  %27 = tail call float @llvm.fmuladd.f32(float %26, float %11, float %16)
  %28 = add nuw nsw i64 %indvars.iv, %18
  %29 = getelementptr inbounds nuw float, ptr %1, i64 %28
  store float %27, ptr %29, align 4, !tbaa !8
  %30 = uitofp nneg i32 %25 to float
  %31 = tail call float @llvm.fmuladd.f32(float %30, float %11, float %16)
  %32 = or disjoint i64 %28, 16
  %33 = getelementptr inbounds nuw float, ptr %1, i64 %32
  store float %31, ptr %33, align 4, !tbaa !8
  %indvars.iv.next = add nuw nsw i64 %indvars.iv, 1
  %exitcond.not = icmp eq i64 %indvars.iv.next, 16
  br i1 %exitcond.not, label %19, label %20, !llvm.loop !35
}